; Function Attrs: mustprogress uwtable
define hidden void @_ZN7nanogui6Shader3endEv(ptr nocapture noundef nonnull readonly align 8 dereferenceable(125) %0) local_unnamed_addr #0 align 2 {
  %2 = getelementptr inbounds i8, ptr %0, i64 112
  %3 = load i32, ptr %2, align 8
  %4 = icmp eq i32 %3, 1
  br i1 %4, label %5, label %6

5:                                                ; preds = %1
  tail call void @glDisable(i32 noundef 3042)
  br label %6

6:                                                ; preds = %5, %1
  %7 = getelementptr inbounds i8, ptr %0, i64 124
  %8 = load i8, ptr %7, align 4
  %9 = and i8 %8, 1
  %.not = icmp eq i8 %9, 0
  br i1 %.not, label %11, label %10

10:                                               ; preds = %6
  tail call void @glDisable(i32 noundef 34370)
  br label %11

11:                                               ; preds = %10, %6
  tail call void @glBindVertexArray(i32 noundef 0)
  tail call void @glUseProgram(i32 noundef 0)
  ret void
}